; ModuleID = '31/1839.c'
source_filename = "31/1839.c"
target datalayout = "e-m:e-p270:32:32-p271:32:32-p272:64:64-i64:64-f80:128-n8:16:32:64-S128"
target triple = "x86_64-pc-linux-gnu"

%struct.stu = type { [21 x i8], [31 x i8], [2 x i8], i32, float, [31 x i8], %struct.stu*, %struct.stu* }

@.str = private unnamed_addr constant [3 x i8] c"%s\00", align 1
@.str.1 = private unnamed_addr constant [4 x i8] c"end\00", align 1
@.str.2 = private unnamed_addr constant [3 x i8] c"%d\00", align 1
@.str.3 = private unnamed_addr constant [3 x i8] c"%f\00", align 1
@.str.4 = private unnamed_addr constant [19 x i8] c"%s %s %s %d %g %s\0A\00", align 1

; Function Attrs: noinline nounwind uwtable
define dso_local void @main() #0 {
  %1 = alloca %struct.stu*, align 8
  %2 = alloca %struct.stu*, align 8
  %3 = alloca %struct.stu*, align 8
  %4 = alloca %struct.stu*, align 8
  %5 = call noalias i8* @malloc(i64 112) #4
  %6 = bitcast i8* %5 to %struct.stu*
  store %struct.stu* %6, %struct.stu** %1, align 8
  %7 = load %struct.stu*, %struct.stu** %1, align 8
  store %struct.stu* %7, %struct.stu** %2, align 8
  %8 = load %struct.stu*, %struct.stu** %2, align 8
  store %struct.stu* %8, %struct.stu** %3, align 8
  %9 = load %struct.stu*, %struct.stu** %2, align 8
  %10 = getelementptr inbounds %struct.stu, %struct.stu* %9, i32 0, i32 7
  store %struct.stu* null, %struct.stu** %10, align 8
  %11 = load %struct.stu*, %struct.stu** %2, align 8
  %12 = getelementptr inbounds %struct.stu, %struct.stu* %11, i32 0, i32 0
  %13 = call i32 (i8*, ...) @__isoc99_scanf(i8* getelementptr inbounds ([3 x i8], [3 x i8]* @.str, i64 0, i64 0), [21 x i8]* %12)
  %14 = load %struct.stu*, %struct.stu** %2, align 8
  %15 = getelementptr inbounds %struct.stu, %struct.stu* %14, i32 0, i32 0
  %16 = getelementptr inbounds [21 x i8], [21 x i8]* %15, i64 0, i64 0
  %17 = call i32 @strcmp(i8* %16, i8* getelementptr inbounds ([4 x i8], [4 x i8]* @.str.1, i64 0, i64 0)) #5
  %18 = icmp ne i32 %17, 0
  br i1 %18, label %19, label %106

19:                                               ; preds = %0
  br label %20

20:                                               ; preds = %26, %19
  %21 = load %struct.stu*, %struct.stu** %2, align 8
  %22 = getelementptr inbounds %struct.stu, %struct.stu* %21, i32 0, i32 0
  %23 = getelementptr inbounds [21 x i8], [21 x i8]* %22, i64 0, i64 0
  %24 = call i32 @strcmp(i8* %23, i8* getelementptr inbounds ([4 x i8], [4 x i8]* @.str.1, i64 0, i64 0)) #5
  %25 = icmp ne i32 %24, 0
  br i1 %25, label %26, label %54

26:                                               ; preds = %20
  %27 = load %struct.stu*, %struct.stu** %2, align 8
  %28 = getelementptr inbounds %struct.stu, %struct.stu* %27, i32 0, i32 1
  %29 = call i32 (i8*, ...) @__isoc99_scanf(i8* getelementptr inbounds ([3 x i8], [3 x i8]* @.str, i64 0, i64 0), [31 x i8]* %28)
  %30 = load %struct.stu*, %struct.stu** %2, align 8
  %31 = getelementptr inbounds %struct.stu, %struct.stu* %30, i32 0, i32 2
  %32 = call i32 (i8*, ...) @__isoc99_scanf(i8* getelementptr inbounds ([3 x i8], [3 x i8]* @.str, i64 0, i64 0), [2 x i8]* %31)
  %33 = load %struct.stu*, %struct.stu** %2, align 8
  %34 = getelementptr inbounds %struct.stu, %struct.stu* %33, i32 0, i32 3
  %35 = call i32 (i8*, ...) @__isoc99_scanf(i8* getelementptr inbounds ([3 x i8], [3 x i8]* @.str.2, i64 0, i64 0), i32* %34)
  %36 = load %struct.stu*, %struct.stu** %2, align 8
  %37 = getelementptr inbounds %struct.stu, %struct.stu* %36, i32 0, i32 4
  %38 = call i32 (i8*, ...) @__isoc99_scanf(i8* getelementptr inbounds ([3 x i8], [3 x i8]* @.str.3, i64 0, i64 0), float* %37)
  %39 = load %struct.stu*, %struct.stu** %2, align 8
  %40 = getelementptr inbounds %struct.stu, %struct.stu* %39, i32 0, i32 5
  %41 = call i32 (i8*, ...) @__isoc99_scanf(i8* getelementptr inbounds ([3 x i8], [3 x i8]* @.str, i64 0, i64 0), [31 x i8]* %40)
  %42 = call noalias i8* @malloc(i64 112) #4
  %43 = bitcast i8* %42 to %struct.stu*
  store %struct.stu* %43, %struct.stu** %3, align 8
  %44 = load %struct.stu*, %struct.stu** %3, align 8
  %45 = load %struct.stu*, %struct.stu** %2, align 8
  %46 = getelementptr inbounds %struct.stu, %struct.stu* %45, i32 0, i32 6
  store %struct.stu* %44, %struct.stu** %46, align 8
  %47 = load %struct.stu*, %struct.stu** %2, align 8
  %48 = load %struct.stu*, %struct.stu** %3, align 8
  %49 = getelementptr inbounds %struct.stu, %struct.stu* %48, i32 0, i32 7
  store %struct.stu* %47, %struct.stu** %49, align 8
  %50 = load %struct.stu*, %struct.stu** %3, align 8
  store %struct.stu* %50, %struct.stu** %2, align 8
  %51 = load %struct.stu*, %struct.stu** %2, align 8
  %52 = getelementptr inbounds %struct.stu, %struct.stu* %51, i32 0, i32 0
  %53 = call i32 (i8*, ...) @__isoc99_scanf(i8* getelementptr inbounds ([3 x i8], [3 x i8]* @.str, i64 0, i64 0), [21 x i8]* %52)
  br label %20

54:                                               ; preds = %20
  %55 = load %struct.stu*, %struct.stu** %2, align 8
  %56 = getelementptr inbounds %struct.stu, %struct.stu* %55, i32 0, i32 7
  %57 = load %struct.stu*, %struct.stu** %56, align 8
  store %struct.stu* %57, %struct.stu** %4, align 8
  %58 = load %struct.stu*, %struct.stu** %2, align 8
  %59 = bitcast %struct.stu* %58 to i8*
  call void @free(i8* %59) #4
  %60 = load %struct.stu*, %struct.stu** %4, align 8
  %61 = getelementptr inbounds %struct.stu, %struct.stu* %60, i32 0, i32 6
  store %struct.stu* null, %struct.stu** %61, align 8
  %62 = load %struct.stu*, %struct.stu** %4, align 8
  store %struct.stu* %62, %struct.stu** %2, align 8
  %63 = load %struct.stu*, %struct.stu** %2, align 8
  store %struct.stu* %63, %struct.stu** %3, align 8
  br label %64

64:                                               ; preds = %67, %54
  %65 = load %struct.stu*, %struct.stu** %2, align 8
  %66 = icmp ne %struct.stu* %65, null
  br i1 %66, label %67, label %92

67:                                               ; preds = %64
  %68 = load %struct.stu*, %struct.stu** %2, align 8
  %69 = getelementptr inbounds %struct.stu, %struct.stu* %68, i32 0, i32 0
  %70 = getelementptr inbounds [21 x i8], [21 x i8]* %69, i64 0, i64 0
  %71 = load %struct.stu*, %struct.stu** %2, align 8
  %72 = getelementptr inbounds %struct.stu, %struct.stu* %71, i32 0, i32 1
  %73 = getelementptr inbounds [31 x i8], [31 x i8]* %72, i64 0, i64 0
  %74 = load %struct.stu*, %struct.stu** %2, align 8
  %75 = getelementptr inbounds %struct.stu, %struct.stu* %74, i32 0, i32 2
  %76 = getelementptr inbounds [2 x i8], [2 x i8]* %75, i64 0, i64 0
  %77 = load %struct.stu*, %struct.stu** %2, align 8
  %78 = getelementptr inbounds %struct.stu, %struct.stu* %77, i32 0, i32 3
  %79 = load i32, i32* %78, align 8
  %80 = load %struct.stu*, %struct.stu** %2, align 8
  %81 = getelementptr inbounds %struct.stu, %struct.stu* %80, i32 0, i32 4
  %82 = load float, float* %81, align 4
  %83 = fpext float %82 to double
  %84 = load %struct.stu*, %struct.stu** %2, align 8
  %85 = getelementptr inbounds %struct.stu, %struct.stu* %84, i32 0, i32 5
  %86 = getelementptr inbounds [31 x i8], [31 x i8]* %85, i64 0, i64 0
  %87 = call i32 (i8*, ...) @printf(i8* getelementptr inbounds ([19 x i8], [19 x i8]* @.str.4, i64 0, i64 0), i8* %70, i8* %73, i8* %76, i32 %79, double %83, i8* %86)
  %88 = load %struct.stu*, %struct.stu** %2, align 8
  %89 = getelementptr inbounds %struct.stu, %struct.stu* %88, i32 0, i32 7
  %90 = load %struct.stu*, %struct.stu** %89, align 8
  store %struct.stu* %90, %struct.stu** %3, align 8
  %91 = load %struct.stu*, %struct.stu** %3, align 8
  store %struct.stu* %91, %struct.stu** %2, align 8
  br label %64

92:                                               ; preds = %64
  %93 = load %struct.stu*, %struct.stu** %1, align 8
  store %struct.stu* %93, %struct.stu** %2, align 8
  %94 = load %struct.stu*, %struct.stu** %2, align 8
  store %struct.stu* %94, %struct.stu** %3, align 8
  br label %95

95:                                               ; preds = %98, %92
  %96 = load %struct.stu*, %struct.stu** %2, align 8
  %97 = icmp ne %struct.stu* %96, null
  br i1 %97, label %98, label %105

98:                                               ; preds = %95
  %99 = load %struct.stu*, %struct.stu** %2, align 8
  %100 = getelementptr inbounds %struct.stu, %struct.stu* %99, i32 0, i32 6
  %101 = load %struct.stu*, %struct.stu** %100, align 8
  store %struct.stu* %101, %struct.stu** %3, align 8
  %102 = load %struct.stu*, %struct.stu** %2, align 8
  %103 = bitcast %struct.stu* %102 to i8*
  call void @free(i8* %103) #4
  %104 = load %struct.stu*, %struct.stu** %3, align 8
  store %struct.stu* %104, %struct.stu** %2, align 8
  br label %95

105:                                              ; preds = %95
  br label %109

106:                                              ; preds = %0
  %107 = load %struct.stu*, %struct.stu** %1, align 8
  %108 = bitcast %struct.stu* %107 to i8*
  call void @free(i8* %108) #4
  br label %109

109:                                              ; preds = %106, %105
  ret void
}

; Function Attrs: nounwind
declare dso_local noalias i8* @malloc(i64) #1

declare dso_local i32 @__isoc99_scanf(i8*, ...) #2

; Function Attrs: nounwind readonly
declare dso_local i32 @strcmp(i8*, i8*) #3

; Function Attrs: nounwind
declare dso_local void @free(i8*) #1

declare dso_local i32 @printf(i8*, ...) #2


!llvm.module.flags = !{!0}
!llvm.ident = !{!1}

!0 = !{i32 1, !"wchar_size", i32 4}
!1 = !{!"clang version 10.0.0-4ubuntu1 "}
